target datalayout = "e-m:e-p270:32:32-p271:32:32-p272:64:64-i64:64-i128:128-f80:128-n8:16:32:64-S128"
target triple = "x86_64-pc-linux-gnu"

%struct.ForEachState = type { ptr, i32 }
%struct.QualCost = type { double, double }
%struct.List = type { i32, i32, i32, ptr, [0 x %union.ListCell] }
%union.ListCell = type { ptr }
%struct.IndexOptInfo = type { i32, i32, i32, ptr, i32, double, i32, i32, i32, ptr, ptr, ptr, ptr, ptr, ptr, ptr, ptr, ptr, i32, ptr, ptr, ptr, ptr, i8, i8, i8, i8, i8, i8, i8, i8, i8, i8, i8, i8, i8, ptr }
%struct.RestrictInfo = type { i32, ptr, i8, i8, i8, i8, i8, i8, i32, i32, i32, ptr, ptr, ptr, ptr, ptr, ptr, ptr, i32, ptr, %struct.QualCost, double, double, ptr, ptr, ptr, ptr, ptr, ptr, i8, i32, double, double, double, double, i32, i32 }
%struct.Node = type { i32 }
%struct.IndexClause = type { i32, ptr, ptr, i8, i16, ptr }
%struct.SupportRequestIndexCondition = type { i32, ptr, i32, ptr, i32, ptr, i32, i32, i32, i8 }

; Function Attrs: inlinehint nounwind uwtable
define internal ptr @newNode(i64 noundef %0, i32 noundef %1) #4 {
  %3 = alloca i64, align 8
  %4 = alloca i32, align 4
  %5 = alloca ptr, align 8
  store i64 %0, ptr %3, align 8
  store i32 %1, ptr %4, align 4
  call void @llvm.lifetime.start.p0(i64 8, ptr %5) #7
  %6 = load i64, ptr %3, align 8
  %7 = call ptr @palloc0(i64 noundef %6)
  store ptr %7, ptr %5, align 8
  %8 = load i32, ptr %4, align 4
  %9 = load ptr, ptr %5, align 8
  %10 = getelementptr inbounds nuw %struct.Node, ptr %9, i32 0, i32 0
  store i32 %8, ptr %10, align 4
  %11 = load ptr, ptr %5, align 8
  call void @llvm.lifetime.end.p0(i64 8, ptr %5) #7
  ret ptr %11
}

; Function Attrs: inlinehint nounwind uwtable
define internal ptr @DatumGetPointer(i64 noundef %0) #4 {
  %2 = alloca i64, align 8
  store i64 %0, ptr %2, align 8
  %3 = load i64, ptr %2, align 8
  %4 = inttoptr i64 %3 to ptr
  ret ptr %4
}

; Function Attrs: inlinehint nounwind uwtable
define internal i64 @PointerGetDatum(ptr noundef %0) #4 {
  %2 = alloca ptr, align 8
  store ptr %0, ptr %2, align 8
  %3 = load ptr, ptr %2, align 8
  %4 = ptrtoint ptr %3 to i64
  ret i64 %4
}

; Function Attrs: nounwind uwtable
define internal ptr @get_index_clause_from_support(ptr noundef %0, ptr noundef %1, i32 noundef %2, i32 noundef %3, i32 noundef %4, ptr noundef %5) #0 {
  %7 = alloca ptr, align 8
  %8 = alloca ptr, align 8
  %9 = alloca ptr, align 8
  %10 = alloca i32, align 4
  %11 = alloca i32, align 4
  %12 = alloca i32, align 4
  %13 = alloca ptr, align 8
  %14 = alloca i32, align 4
  %15 = alloca %struct.SupportRequestIndexCondition, align 8
  %16 = alloca ptr, align 8
  %17 = alloca i32, align 4
  %18 = alloca ptr, align 8
  %19 = alloca ptr, align 8
  %20 = alloca ptr, align 8
  %21 = alloca %struct.ForEachState, align 8
  %22 = alloca ptr, align 8
  store ptr %0, ptr %8, align 8
  store ptr %1, ptr %9, align 8
  store i32 %2, ptr %10, align 4
  store i32 %3, ptr %11, align 4
  store i32 %4, ptr %12, align 4
  store ptr %5, ptr %13, align 8
  call void @llvm.lifetime.start.p0(i64 4, ptr %14) #7
  %23 = load i32, ptr %10, align 4
  %24 = call i32 @get_func_support(i32 noundef %23)
  store i32 %24, ptr %14, align 4
  call void @llvm.lifetime.start.p0(i64 64, ptr %15) #7
  call void @llvm.lifetime.start.p0(i64 8, ptr %16) #7
  %25 = load i32, ptr %14, align 4
  %26 = icmp ne i32 %25, 0
  br i1 %26, label %28, label %27

27:                                               ; preds = %6
  store ptr null, ptr %7, align 8
  store i32 1, ptr %17, align 4
  br label %132

28:                                               ; preds = %6
  %29 = getelementptr inbounds nuw %struct.SupportRequestIndexCondition, ptr %15, i32 0, i32 0
  store i32 460, ptr %29, align 8
  %30 = load ptr, ptr %8, align 8
  %31 = getelementptr inbounds nuw %struct.SupportRequestIndexCondition, ptr %15, i32 0, i32 1
  store ptr %30, ptr %31, align 8
  %32 = load i32, ptr %10, align 4
  %33 = getelementptr inbounds nuw %struct.SupportRequestIndexCondition, ptr %15, i32 0, i32 2
  store i32 %32, ptr %33, align 8
  %34 = load ptr, ptr %9, align 8
  %35 = getelementptr inbounds nuw %struct.RestrictInfo, ptr %34, i32 0, i32 1
  %36 = load ptr, ptr %35, align 8
  %37 = getelementptr inbounds nuw %struct.SupportRequestIndexCondition, ptr %15, i32 0, i32 3
  store ptr %36, ptr %37, align 8
  %38 = load i32, ptr %11, align 4
  %39 = getelementptr inbounds nuw %struct.SupportRequestIndexCondition, ptr %15, i32 0, i32 4
  store i32 %38, ptr %39, align 8
  %40 = load ptr, ptr %13, align 8
  %41 = getelementptr inbounds nuw %struct.SupportRequestIndexCondition, ptr %15, i32 0, i32 5
  store ptr %40, ptr %41, align 8
  %42 = load i32, ptr %12, align 4
  %43 = getelementptr inbounds nuw %struct.SupportRequestIndexCondition, ptr %15, i32 0, i32 6
  store i32 %42, ptr %43, align 8
  %44 = load ptr, ptr %13, align 8
  %45 = getelementptr inbounds nuw %struct.IndexOptInfo, ptr %44, i32 0, i32 11
  %46 = load ptr, ptr %45, align 8
  %47 = load i32, ptr %12, align 4
  %48 = sext i32 %47 to i64
  %49 = getelementptr inbounds i32, ptr %46, i64 %48
  %50 = load i32, ptr %49, align 4
  %51 = getelementptr inbounds nuw %struct.SupportRequestIndexCondition, ptr %15, i32 0, i32 7
  store i32 %50, ptr %51, align 4
  %52 = load ptr, ptr %13, align 8
  %53 = getelementptr inbounds nuw %struct.IndexOptInfo, ptr %52, i32 0, i32 10
  %54 = load ptr, ptr %53, align 8
  %55 = load i32, ptr %12, align 4
  %56 = sext i32 %55 to i64
  %57 = getelementptr inbounds i32, ptr %54, i64 %56
  %58 = load i32, ptr %57, align 4
  %59 = getelementptr inbounds nuw %struct.SupportRequestIndexCondition, ptr %15, i32 0, i32 8
  store i32 %58, ptr %59, align 8
  %60 = getelementptr inbounds nuw %struct.SupportRequestIndexCondition, ptr %15, i32 0, i32 9
  store i8 1, ptr %60, align 4
  %61 = load i32, ptr %14, align 4
  %62 = call i64 @PointerGetDatum(ptr noundef %15)
  %63 = call i64 @OidFunctionCall1Coll(i32 noundef %61, i32 noundef 0, i64 noundef %62)
  %64 = call ptr @DatumGetPointer(i64 noundef %63)
  store ptr %64, ptr %16, align 8
  %65 = load ptr, ptr %16, align 8
  %66 = icmp ne ptr %65, null
  br i1 %66, label %67, label %131

67:                                               ; preds = %28
  call void @llvm.lifetime.start.p0(i64 8, ptr %18) #7
  %68 = call ptr @newNode(i64 noundef 40, i32 noundef 280)
  store ptr %68, ptr %18, align 8
  call void @llvm.lifetime.start.p0(i64 8, ptr %19) #7
  store ptr null, ptr %19, align 8
  call void @llvm.lifetime.start.p0(i64 8, ptr %20) #7
  call void @llvm.lifetime.start.p0(i64 16, ptr %21) #7
  %69 = getelementptr inbounds nuw %struct.ForEachState, ptr %21, i32 0, i32 0
  %70 = load ptr, ptr %16, align 8
  store ptr %70, ptr %69, align 8
  %71 = getelementptr inbounds nuw %struct.ForEachState, ptr %21, i32 0, i32 1
  store i32 0, ptr %71, align 8
  %72 = getelementptr i8, ptr %21, i64 12
  call void @llvm.memset.p0.i64(ptr align 4 %72, i8 0, i64 4, i1 false)
  br label %73

73:                                               ; preds = %107, %67
  %74 = getelementptr inbounds nuw %struct.ForEachState, ptr %21, i32 0, i32 0
  %75 = load ptr, ptr %74, align 8
  %76 = icmp ne ptr %75, null
  br i1 %76, label %77, label %94

77:                                               ; preds = %73
  %78 = getelementptr inbounds nuw %struct.ForEachState, ptr %21, i32 0, i32 1
  %79 = load i32, ptr %78, align 8
  %80 = getelementptr inbounds nuw %struct.ForEachState, ptr %21, i32 0, i32 0
  %81 = load ptr, ptr %80, align 8
  %82 = getelementptr inbounds nuw %struct.List, ptr %81, i32 0, i32 1
  %83 = load i32, ptr %82, align 4
  %84 = icmp slt i32 %79, %83
  br i1 %84, label %85, label %94

85:                                               ; preds = %77
  %86 = getelementptr inbounds nuw %struct.ForEachState, ptr %21, i32 0, i32 0
  %87 = load ptr, ptr %86, align 8
  %88 = getelementptr inbounds nuw %struct.List, ptr %87, i32 0, i32 3
  %89 = load ptr, ptr %88, align 8
  %90 = getelementptr inbounds nuw %struct.ForEachState, ptr %21, i32 0, i32 1
  %91 = load i32, ptr %90, align 8
  %92 = sext i32 %91 to i64
  %93 = getelementptr inbounds %union.ListCell, ptr %89, i64 %92
  store ptr %93, ptr %20, align 8
  br label %95

94:                                               ; preds = %77, %73
  store ptr null, ptr %20, align 8
  br label %95

95:                                               ; preds = %94, %85
  %96 = phi i32 [ 1, %85 ], [ 0, %94 ]
  %97 = icmp ne i32 %96, 0
  br i1 %97, label %99, label %98

98:                                               ; preds = %95
  store i32 2, ptr %17, align 4
  call void @llvm.lifetime.end.p0(i64 16, ptr %21) #7
  br label %111

99:                                               ; preds = %95
  call void @llvm.lifetime.start.p0(i64 8, ptr %22) #7
  %100 = load ptr, ptr %20, align 8
  %101 = load ptr, ptr %100, align 8
  store ptr %101, ptr %22, align 8
  %102 = load ptr, ptr %19, align 8
  %103 = load ptr, ptr %8, align 8
  %104 = load ptr, ptr %22, align 8
  %105 = call ptr @make_restrictinfo(ptr noundef %103, ptr noundef %104, i1 noundef zeroext true, i1 noundef zeroext false, i1 noundef zeroext false, i1 noundef zeroext false, i32 noundef 0, ptr noundef null, ptr noundef null, ptr noundef null)
  %106 = call ptr @lappend(ptr noundef %102, ptr noundef %105)
  store ptr %106, ptr %19, align 8
  call void @llvm.lifetime.end.p0(i64 8, ptr %22) #7
  br label %107

107:                                              ; preds = %99
  %108 = getelementptr inbounds nuw %struct.ForEachState, ptr %21, i32 0, i32 1
  %109 = load i32, ptr %108, align 8
  %110 = add i32 %109, 1
  store i32 %110, ptr %108, align 8
  br label %73, !llvm.loop !66

111:                                              ; preds = %98
  %112 = load ptr, ptr %9, align 8
  %113 = load ptr, ptr %18, align 8
  %114 = getelementptr inbounds nuw %struct.IndexClause, ptr %113, i32 0, i32 1
  store ptr %112, ptr %114, align 8
  %115 = load ptr, ptr %19, align 8
  %116 = load ptr, ptr %18, align 8
  %117 = getelementptr inbounds nuw %struct.IndexClause, ptr %116, i32 0, i32 2
  store ptr %115, ptr %117, align 8
  %118 = getelementptr inbounds nuw %struct.SupportRequestIndexCondition, ptr %15, i32 0, i32 9
  %119 = load i8, ptr %118, align 4, !range !4, !noundef !5
  %120 = trunc i8 %119 to i1
  %121 = load ptr, ptr %18, align 8
  %122 = getelementptr inbounds nuw %struct.IndexClause, ptr %121, i32 0, i32 3
  %123 = zext i1 %120 to i8
  store i8 %123, ptr %122, align 8
  %124 = load i32, ptr %12, align 4
  %125 = trunc i32 %124 to i16
  %126 = load ptr, ptr %18, align 8
  %127 = getelementptr inbounds nuw %struct.IndexClause, ptr %126, i32 0, i32 4
  store i16 %125, ptr %127, align 2
  %128 = load ptr, ptr %18, align 8
  %129 = getelementptr inbounds nuw %struct.IndexClause, ptr %128, i32 0, i32 5
  store ptr null, ptr %129, align 8
  %130 = load ptr, ptr %18, align 8
  store ptr %130, ptr %7, align 8
  store i32 1, ptr %17, align 4
  call void @llvm.lifetime.end.p0(i64 8, ptr %20) #7
  call void @llvm.lifetime.end.p0(i64 8, ptr %19) #7
  call void @llvm.lifetime.end.p0(i64 8, ptr %18) #7
  br label %132

131:                                              ; preds = %28
  store ptr null, ptr %7, align 8
  store i32 1, ptr %17, align 4
  br label %132

132:                                              ; preds = %131, %111, %27
  call void @llvm.lifetime.end.p0(i64 8, ptr %16) #7
  call void @llvm.lifetime.end.p0(i64 64, ptr %15) #7
  call void @llvm.lifetime.end.p0(i64 4, ptr %14) #7
  %133 = load ptr, ptr %7, align 8
  ret ptr %133
}