; Function Attrs: nounwind uwtable
define internal fastcc noundef ptr @get_index_clause_from_support(ptr noundef %0, ptr noundef %1, i32 noundef %2, i32 noundef %3, i32 noundef %4, ptr noundef %5) unnamed_addr #0 {
  %7 = alloca %struct.SupportRequestIndexCondition, align 8
  %8 = tail call i32 @get_func_support(i32 noundef %2) #8
  call void @llvm.lifetime.start.p0(i64 64, ptr nonnull %7) #8
  %.not = icmp eq i32 %8, 0
  br i1 %.not, label %53, label %9

9:                                                ; preds = %6
  store i32 460, ptr %7, align 8
  %10 = getelementptr inbounds nuw i8, ptr %7, i64 8
  store ptr %0, ptr %10, align 8
  %11 = getelementptr inbounds nuw i8, ptr %7, i64 16
  store i32 %2, ptr %11, align 8
  %12 = getelementptr inbounds nuw i8, ptr %1, i64 8
  %13 = load ptr, ptr %12, align 8
  %14 = getelementptr inbounds nuw i8, ptr %7, i64 24
  store ptr %13, ptr %14, align 8
  %15 = getelementptr inbounds nuw i8, ptr %7, i64 32
  store i32 %3, ptr %15, align 8
  %16 = getelementptr inbounds nuw i8, ptr %7, i64 40
  store ptr %5, ptr %16, align 8
  %17 = getelementptr inbounds nuw i8, ptr %7, i64 48
  store i32 %4, ptr %17, align 8
  %18 = getelementptr inbounds nuw i8, ptr %5, i64 72
  %19 = load ptr, ptr %18, align 8
  %20 = sext i32 %4 to i64
  %21 = getelementptr inbounds i32, ptr %19, i64 %20
  %22 = load i32, ptr %21, align 4
  %23 = getelementptr inbounds nuw i8, ptr %7, i64 52
  store i32 %22, ptr %23, align 4
  %24 = getelementptr inbounds nuw i8, ptr %5, i64 64
  %25 = load ptr, ptr %24, align 8
  %26 = getelementptr inbounds i32, ptr %25, i64 %20
  %27 = load i32, ptr %26, align 4
  %28 = getelementptr inbounds nuw i8, ptr %7, i64 56
  store i32 %27, ptr %28, align 8
  %29 = getelementptr inbounds nuw i8, ptr %7, i64 60
  store i8 1, ptr %29, align 4
  %30 = ptrtoint ptr %7 to i64
  %31 = call i64 @OidFunctionCall1Coll(i32 noundef %8, i32 noundef 0, i64 noundef %30) #8
  %32 = inttoptr i64 %31 to ptr
  %.not36 = icmp eq i64 %31, 0
  br i1 %.not36, label %53, label %33

33:                                               ; preds = %9
  %34 = call noundef ptr @palloc0(i64 noundef 40) #8
  store i32 280, ptr %34, align 4
  %35 = getelementptr inbounds nuw i8, ptr %32, i64 4
  %36 = load i32, ptr %35, align 4
  %.not3841 = icmp sgt i32 %36, 0
  br i1 %.not3841, label %.lr.ph, label %._crit_edge

.lr.ph:                                           ; preds = %33
  %37 = getelementptr inbounds nuw i8, ptr %32, i64 16
  br label %45

._crit_edge:                                      ; preds = %45, %33
  %.032.lcssa = phi ptr [ null, %33 ], [ %50, %45 ]
  %38 = getelementptr inbounds nuw i8, ptr %34, i64 8
  store ptr %1, ptr %38, align 8
  %39 = getelementptr inbounds nuw i8, ptr %34, i64 16
  store ptr %.032.lcssa, ptr %39, align 8
  %40 = load i8, ptr %29, align 4, !range !4, !noundef !5
  %41 = getelementptr inbounds nuw i8, ptr %34, i64 24
  store i8 %40, ptr %41, align 8
  %42 = trunc i32 %4 to i16
  %43 = getelementptr inbounds nuw i8, ptr %34, i64 26
  store i16 %42, ptr %43, align 2
  %44 = getelementptr inbounds nuw i8, ptr %34, i64 32
  store ptr null, ptr %44, align 8
  br label %53

45:                                               ; preds = %.lr.ph, %45
  %indvars.iv = phi i64 [ 0, %.lr.ph ], [ %indvars.iv.next, %45 ]
  %.03242 = phi ptr [ null, %.lr.ph ], [ %50, %45 ]
  %46 = load ptr, ptr %37, align 8
  %47 = getelementptr inbounds nuw %union.ListCell, ptr %46, i64 %indvars.iv
  %48 = load ptr, ptr %47, align 8
  %49 = call ptr @make_restrictinfo(ptr noundef %0, ptr noundef %48, i1 noundef zeroext true, i1 noundef zeroext false, i1 noundef zeroext false, i1 noundef zeroext false, i32 noundef 0, ptr noundef null, ptr noundef null, ptr noundef null) #8
  %50 = call ptr @lappend(ptr noundef %.03242, ptr noundef %49) #8
  %indvars.iv.next = add nuw nsw i64 %indvars.iv, 1
  %51 = load i32, ptr %35, align 4
  %52 = sext i32 %51 to i64
  %.not38 = icmp slt i64 %indvars.iv.next, %52
  br i1 %.not38, label %45, label %._crit_edge, !llvm.loop !32

53:                                               ; preds = %9, %6, %._crit_edge
  %.0 = phi ptr [ %34, %._crit_edge ], [ null, %6 ], [ null, %9 ]
  call void @llvm.lifetime.end.p0(i64 64, ptr nonnull %7) #8
  ret ptr %.0
}